; Function Attrs: nounwind uwtable
define dso_local void @ExecInitResultSlot(ptr noundef captures(none) initializes((120, 128), (184, 192), (195, 196), (199, 200)) %0, ptr noundef %1) local_unnamed_addr #1 {
  %3 = getelementptr inbounds nuw i8, ptr %0, i64 16
  %4 = load ptr, ptr %3, align 8
  %5 = getelementptr inbounds nuw i8, ptr %0, i64 112
  %6 = load ptr, ptr %5, align 8
  %7 = load i64, ptr %1, align 8
  %.not.i.i = icmp eq ptr %6, null
  br i1 %.not.i.i, label %18, label %8

8:                                                ; preds = %2
  %9 = add i64 %7, 7
  %10 = and i64 %9, -8
  %11 = load i32, ptr %6, align 8
  %12 = sext i32 %11 to i64
  %13 = shl nsw i64 %12, 3
  %14 = add i64 %13, %10
  %15 = add nsw i64 %12, 7
  %16 = and i64 %15, -8
  %17 = add i64 %14, %16
  br label %18

18:                                               ; preds = %8, %2
  %spec.select.v.i.i = phi i16 [ 18, %8 ], [ 2, %2 ]
  %.0.i.i = phi i64 [ %17, %8 ], [ %7, %2 ]
  %19 = tail call ptr @palloc0(i64 noundef %.0.i.i) #14
  %20 = getelementptr inbounds nuw i8, ptr %19, i64 8
  store ptr %1, ptr %20, align 8
  store i32 442, ptr %19, align 8
  %21 = getelementptr inbounds nuw i8, ptr %19, i64 4
  %22 = load i16, ptr %21, align 4
  %spec.select.i.i = or i16 %22, %spec.select.v.i.i
  store i16 %spec.select.i.i, ptr %21, align 4
  %23 = getelementptr inbounds nuw i8, ptr %19, i64 16
  store ptr %6, ptr %23, align 8
  %24 = load ptr, ptr @CurrentMemoryContext, align 8
  %25 = getelementptr inbounds nuw i8, ptr %19, i64 40
  store ptr %24, ptr %25, align 8
  %26 = getelementptr inbounds nuw i8, ptr %19, i64 6
  store i16 0, ptr %26, align 2
  br i1 %.not.i.i, label %ExecAllocTableSlot.exit, label %27

27:                                               ; preds = %18
  %28 = add i64 %7, 7
  %29 = and i64 %28, -8
  %30 = getelementptr inbounds nuw i8, ptr %19, i64 %29
  %31 = getelementptr inbounds nuw i8, ptr %19, i64 24
  store ptr %30, ptr %31, align 8
  %32 = load i32, ptr %6, align 8
  %33 = sext i32 %32 to i64
  %34 = shl nsw i64 %33, 3
  %35 = getelementptr inbounds nuw i8, ptr %30, i64 %34
  %36 = getelementptr inbounds nuw i8, ptr %19, i64 32
  store ptr %35, ptr %36, align 8
  %37 = getelementptr inbounds nuw i8, ptr %6, i64 12
  %38 = load i32, ptr %37, align 4
  %39 = icmp sgt i32 %38, -1
  br i1 %39, label %40, label %ExecAllocTableSlot.exit

40:                                               ; preds = %27
  tail call void @IncrTupleDescRefCount(ptr noundef nonnull %6) #14
  %.pre.i.i = load ptr, ptr %20, align 8
  br label %ExecAllocTableSlot.exit

ExecAllocTableSlot.exit:                          ; preds = %18, %27, %40
  %41 = phi ptr [ %1, %27 ], [ %.pre.i.i, %40 ], [ %1, %18 ]
  %42 = getelementptr inbounds nuw i8, ptr %4, i64 200
  %43 = getelementptr inbounds nuw i8, ptr %41, i64 8
  %44 = load ptr, ptr %43, align 8
  tail call void %44(ptr noundef nonnull %19) #14
  %45 = load ptr, ptr %42, align 8
  %46 = tail call ptr @lappend(ptr noundef %45, ptr noundef nonnull %19) #14
  store ptr %46, ptr %42, align 8
  %47 = getelementptr inbounds nuw i8, ptr %0, i64 120
  store ptr %19, ptr %47, align 8
  %48 = load ptr, ptr %5, align 8
  %49 = icmp ne ptr %48, null
  %50 = getelementptr inbounds nuw i8, ptr %0, i64 195
  %51 = zext i1 %49 to i8
  store i8 %51, ptr %50, align 1
  %52 = getelementptr inbounds nuw i8, ptr %0, i64 184
  store ptr %1, ptr %52, align 8
  %53 = getelementptr inbounds nuw i8, ptr %0, i64 199
  store i8 1, ptr %53, align 1
  ret void
}